target datalayout = "e-m:e-p270:32:32-p271:32:32-p272:64:64-i64:64-i128:128-f80:128-n8:16:32:64-S128"
target triple = "x86_64-pc-linux-gnu"

%struct.stbte_tilemap = type { [200 x [200 x [8 x i16]]], [200 x [200 x [1 x float]]], i32, i32, i32, i32, i32, i32, i32, i32, i32, i32, i32, i32, [100 x ptr], i32, i32, ptr, i32, i32, i32, i8, i8, i8, i8, i32, i32, i32, [8 x %struct.stbte__layer], i32, i32, i32, i32, i32, i32, i32, i32, i16, [4096 x i8], ptr }
%struct.stbte__layer = type { ptr, i32, i32 }

; Function Attrs: nounwind uwtable
define void @stbte__compute_digits(ptr noundef %0) #0 {
  %2 = alloca ptr, align 8
  store ptr %0, ptr %2, align 8, !tbaa !25
  %3 = load ptr, ptr %2, align 8, !tbaa !25
  %4 = getelementptr inbounds nuw %struct.stbte_tilemap, ptr %3, i32 0, i32 2
  %5 = load i32, ptr %4, align 8, !tbaa !31
  %6 = icmp sge i32 %5, 1000
  br i1 %6, label %12, label %7

7:                                                ; preds = %1
  %8 = load ptr, ptr %2, align 8, !tbaa !25
  %9 = getelementptr inbounds nuw %struct.stbte_tilemap, ptr %8, i32 0, i32 3
  %10 = load i32, ptr %9, align 4, !tbaa !32
  %11 = icmp sge i32 %10, 1000
  br i1 %11, label %12, label %15

12:                                               ; preds = %7, %1
  %13 = load ptr, ptr %2, align 8, !tbaa !25
  %14 = getelementptr inbounds nuw %struct.stbte_tilemap, ptr %13, i32 0, i32 20
  store i32 4, ptr %14, align 8, !tbaa !122
  br label %32

15:                                               ; preds = %7
  %16 = load ptr, ptr %2, align 8, !tbaa !25
  %17 = getelementptr inbounds nuw %struct.stbte_tilemap, ptr %16, i32 0, i32 2
  %18 = load i32, ptr %17, align 8, !tbaa !31
  %19 = icmp sge i32 %18, 100
  br i1 %19, label %25, label %20

20:                                               ; preds = %15
  %21 = load ptr, ptr %2, align 8, !tbaa !25
  %22 = getelementptr inbounds nuw %struct.stbte_tilemap, ptr %21, i32 0, i32 3
  %23 = load i32, ptr %22, align 4, !tbaa !32
  %24 = icmp sge i32 %23, 100
  br i1 %24, label %25, label %28

25:                                               ; preds = %20, %15
  %26 = load ptr, ptr %2, align 8, !tbaa !25
  %27 = getelementptr inbounds nuw %struct.stbte_tilemap, ptr %26, i32 0, i32 20
  store i32 3, ptr %27, align 8, !tbaa !122
  br label %31

28:                                               ; preds = %20
  %29 = load ptr, ptr %2, align 8, !tbaa !25
  %30 = getelementptr inbounds nuw %struct.stbte_tilemap, ptr %29, i32 0, i32 20
  store i32 2, ptr %30, align 8, !tbaa !122
  br label %31

31:                                               ; preds = %28, %25
  br label %32

32:                                               ; preds = %31, %12
  ret void
}