; Function Attrs: mustprogress nofree norecurse nosync nounwind willreturn memory(argmem: readwrite) uwtable
define void @stbte__compute_digits(ptr noundef captures(none) initializes((800872, 800876)) %0) local_unnamed_addr #10 {
  %2 = getelementptr inbounds nuw i8, ptr %0, i64 800000
  %3 = load i32, ptr %2, align 8, !tbaa !29
  %4 = icmp sgt i32 %3, 999
  br i1 %4, label %9, label %5

5:                                                ; preds = %1
  %6 = getelementptr inbounds nuw i8, ptr %0, i64 800004
  %7 = load i32, ptr %6, align 4, !tbaa !30
  %8 = icmp sgt i32 %7, 999
  br i1 %8, label %9, label %11

9:                                                ; preds = %5, %1
  %10 = getelementptr inbounds nuw i8, ptr %0, i64 800872
  store i32 4, ptr %10, align 8, !tbaa !105
  br label %17

11:                                               ; preds = %5
  %12 = icmp sgt i32 %3, 99
  %13 = icmp sgt i32 %7, 99
  %or.cond = or i1 %12, %13
  %14 = getelementptr inbounds nuw i8, ptr %0, i64 800872
  br i1 %or.cond, label %15, label %16

15:                                               ; preds = %11
  store i32 3, ptr %14, align 8, !tbaa !105
  br label %17

16:                                               ; preds = %11
  store i32 2, ptr %14, align 8, !tbaa !105
  br label %17

17:                                               ; preds = %15, %16, %9
  ret void
}